; Function Attrs: nounwind uwtable
define internal ptr @gc_get_stats(ptr readnone captures(none) %0, ptr readnone captures(none) %1) #0 {
  %3 = alloca [3 x %struct.gc_generation_stats], align 16
  call void @llvm.lifetime.start.p0(i64 72, ptr nonnull %3) #5
  %4 = tail call align 8 ptr @llvm.threadlocal.address.p0(ptr align 8 @_Py_tss_tstate)
  %5 = load ptr, ptr %4, align 8, !tbaa !4
  %6 = getelementptr inbounds nuw i8, ptr %5, i64 16
  %7 = load ptr, ptr %6, align 8, !tbaa !9
  %8 = getelementptr inbounds nuw i8, ptr %7, i64 7520
  call void @llvm.memcpy.p0.p0.i64(ptr noundef nonnull align 16 dereferenceable(72) %3, ptr noundef nonnull align 8 dereferenceable(72) %8, i64 72, i1 false)
  %9 = tail call ptr @PyList_New(i64 noundef 0) #5
  %10 = icmp eq ptr %9, null
  br i1 %10, label %gc_get_stats_impl.exit, label %.preheader.i

11:                                               ; preds = %Py_DECREF.exit.i
  %indvars.iv.next.i = add nuw nsw i64 %indvars.iv.i, 1
  %exitcond.not.i = icmp eq i64 %indvars.iv.next.i, 3
  br i1 %exitcond.not.i, label %gc_get_stats_impl.exit, label %.preheader.i, !llvm.loop !37

.preheader.i:                                     ; preds = %2, %11
  %indvars.iv.i = phi i64 [ %indvars.iv.next.i, %11 ], [ 0, %2 ]
  %12 = getelementptr [3 x %struct.gc_generation_stats], ptr %3, i64 0, i64 %indvars.iv.i
  %13 = load i64, ptr %12, align 8, !tbaa !39
  %14 = getelementptr inbounds nuw i8, ptr %12, i64 8
  %15 = load i64, ptr %14, align 8, !tbaa !41
  %16 = getelementptr inbounds nuw i8, ptr %12, i64 16
  %17 = load i64, ptr %16, align 8, !tbaa !42
  %18 = tail call ptr (ptr, ...) @Py_BuildValue(ptr noundef nonnull @.str.31, ptr noundef nonnull @.str.32, i64 noundef %13, ptr noundef nonnull @.str.33, i64 noundef %15, ptr noundef nonnull @.str.34, i64 noundef %17) #5
  %19 = icmp eq ptr %18, null
  br i1 %19, label %27, label %20

20:                                               ; preds = %.preheader.i
  %21 = tail call i32 @PyList_Append(ptr noundef nonnull %9, ptr noundef nonnull %18) #5
  %.not.i = icmp eq i32 %21, 0
  %22 = load i32, ptr %18, align 8, !tbaa !43
  %.not.i.i = icmp sgt i32 %22, -1
  br i1 %.not.i.i, label %23, label %Py_DECREF.exit.i

23:                                               ; preds = %20
  %24 = add nsw i32 %22, -1
  store i32 %24, ptr %18, align 8, !tbaa !43
  %25 = icmp eq i32 %24, 0
  br i1 %25, label %26, label %Py_DECREF.exit.i

26:                                               ; preds = %23
  tail call void @_Py_Dealloc(ptr noundef nonnull %18) #5
  br label %Py_DECREF.exit.i

Py_DECREF.exit.i:                                 ; preds = %26, %23, %20
  br i1 %.not.i, label %11, label %27

27:                                               ; preds = %Py_DECREF.exit.i, %.preheader.i
  %28 = load i32, ptr %9, align 8, !tbaa !43
  %.not.i.i.i = icmp sgt i32 %28, -1
  br i1 %.not.i.i.i, label %29, label %gc_get_stats_impl.exit

29:                                               ; preds = %27
  %30 = add nsw i32 %28, -1
  store i32 %30, ptr %9, align 8, !tbaa !43
  %31 = icmp eq i32 %30, 0
  br i1 %31, label %32, label %gc_get_stats_impl.exit

32:                                               ; preds = %29
  tail call void @_Py_Dealloc(ptr noundef nonnull %9) #5
  br label %gc_get_stats_impl.exit

gc_get_stats_impl.exit:                           ; preds = %11, %2, %27, %29, %32
  %.0.i = phi ptr [ null, %2 ], [ null, %27 ], [ null, %29 ], [ null, %32 ], [ %9, %11 ]
  call void @llvm.lifetime.end.p0(i64 72, ptr nonnull %3) #5
  ret ptr %.0.i
}